(lp0
S'Machine'
p1
aS'SizeOfOptionalHeader'
p2
aS'Characteristics'
p3
aS'ImageBase'
p4
aS'MajorSubsystemVersion'
p5
aS'Subsystem'
p6
aS'DllCharacteristics'
p7
aS'SectionsMeanEntropy'
p8
aS'SectionsMinEntropy'
p9
aS'SectionsMaxEntropy'
p10
aS'ResourcesMinEntropy'
p11
aS'ResourcesMaxEntropy'
p12
aS'VersionInformationSize'
p13
a.